; Function Attrs: nounwind uwtable
define void @Abc_ConvertAigToAig_rec(ptr noundef %0, ptr noundef captures(none) %1) local_unnamed_addr #2 {
  %3 = getelementptr i8, ptr %1, i64 32
  %.val = load i32, ptr %3, align 8
  %4 = and i32 %.val, 22
  %or.cond = icmp eq i32 %4, 4
  br i1 %or.cond, label %5, label %39

5:                                                ; preds = %2
  %6 = getelementptr i8, ptr %1, i64 16
  %.val13 = load ptr, ptr %6, align 8, !tbaa !95
  %7 = ptrtoint ptr %.val13 to i64
  %8 = and i64 %7, -2
  %9 = inttoptr i64 %8 to ptr
  tail call void @Abc_ConvertAigToAig_rec(ptr noundef %0, ptr noundef %9)
  %10 = getelementptr i8, ptr %1, i64 24
  %.val14 = load ptr, ptr %10, align 8, !tbaa !96
  %11 = ptrtoint ptr %.val14 to i64
  %12 = and i64 %11, -2
  %13 = inttoptr i64 %12 to ptr
  tail call void @Abc_ConvertAigToAig_rec(ptr noundef %0, ptr noundef %13)
  %14 = getelementptr inbounds nuw i8, ptr %0, i64 256
  %15 = load ptr, ptr %14, align 8, !tbaa !65
  %.val15 = load ptr, ptr %6, align 8, !tbaa !95
  %16 = ptrtoint ptr %.val15 to i64
  %17 = and i64 %16, -2
  %.not.i = icmp eq i64 %17, 0
  br i1 %.not.i, label %Hop_ObjChild0Copy.exit, label %18

18:                                               ; preds = %5
  %19 = inttoptr i64 %17 to ptr
  %20 = load ptr, ptr %19, align 8, !tbaa !3
  %21 = and i64 %16, 1
  %22 = ptrtoint ptr %20 to i64
  %23 = xor i64 %21, %22
  %24 = inttoptr i64 %23 to ptr
  br label %Hop_ObjChild0Copy.exit

Hop_ObjChild0Copy.exit:                           ; preds = %5, %18
  %25 = phi ptr [ %24, %18 ], [ null, %5 ]
  %.val16 = load ptr, ptr %10, align 8, !tbaa !96
  %26 = ptrtoint ptr %.val16 to i64
  %27 = and i64 %26, -2
  %.not.i17 = icmp eq i64 %27, 0
  br i1 %.not.i17, label %Hop_ObjChild1Copy.exit, label %28

28:                                               ; preds = %Hop_ObjChild0Copy.exit
  %29 = inttoptr i64 %27 to ptr
  %30 = load ptr, ptr %29, align 8, !tbaa !3
  %31 = and i64 %26, 1
  %32 = ptrtoint ptr %30 to i64
  %33 = xor i64 %31, %32
  %34 = inttoptr i64 %33 to ptr
  br label %Hop_ObjChild1Copy.exit

Hop_ObjChild1Copy.exit:                           ; preds = %Hop_ObjChild0Copy.exit, %28
  %35 = phi ptr [ %34, %28 ], [ null, %Hop_ObjChild0Copy.exit ]
  %36 = tail call ptr @Abc_AigAnd(ptr noundef %15, ptr noundef %25, ptr noundef %35) #17
  store ptr %36, ptr %1, align 8, !tbaa !3
  %37 = load i32, ptr %3, align 8
  %38 = or i32 %37, 16
  store i32 %38, ptr %3, align 8
  br label %39

39:                                               ; preds = %2, %Hop_ObjChild1Copy.exit
  ret void
}